target datalayout = "e-m:e-p270:32:32-p271:32:32-p272:64:64-i64:64-i128:128-f80:128-n8:16:32:64-S128"
target triple = "x86_64-pc-linux-gnu"

%struct.slurm_conf_t = type { i64, ptr, i16, ptr, ptr, ptr, ptr, ptr, i16, ptr, ptr, ptr, ptr, ptr, ptr, ptr, i16, ptr, ptr, ptr, ptr, i16, ptr, ptr, ptr, i64, ptr, ptr, ptr, ptr, i16, ptr, ptr, i16, i32, ptr, i32, ptr, i32, i32, ptr, ptr, i64, i64, ptr, i16, i16, ptr, i32, i32, ptr, i32, ptr, i32, i16, i16, i16, ptr, i16, i16, ptr, ptr, i32, i16, i16, ptr, i32, i16, ptr, ptr, ptr, ptr, i16, ptr, ptr, ptr, ptr, i32, ptr, ptr, ptr, ptr, i16, i16, ptr, i32, i32, i32, i16, i16, ptr, ptr, i16, ptr, ptr, i32, i32, i32, i32, i32, i64, i32, i32, i16, ptr, ptr, i32, ptr, ptr, ptr, i16, i32, ptr, ptr, i16, ptr, ptr, i32, i16, ptr, ptr, ptr, ptr, i32, i32, i16, i16, i32, ptr, i16, ptr, i32, i32, i32, i32, i32, i32, ptr, i16, ptr, ptr, i32, i16, ptr, i32, i16, i16, ptr, ptr, ptr, i16, ptr, ptr, ptr, ptr, i16, i16, ptr, i16, ptr, i16, ptr, i16, ptr, i16, ptr, ptr, ptr, ptr, i16, ptr, ptr, ptr, i32, ptr, i32, ptr, ptr, i16, ptr, ptr, i32, i16, ptr, ptr, i16, i16, ptr, i16, ptr, ptr, ptr, i32, ptr, i16, i16, ptr, ptr, ptr, ptr, ptr, ptr, ptr, ptr, i16, i32, i16, ptr, ptr, ptr, ptr, i32, ptr, ptr, ptr, i16, ptr, ptr, ptr, i16, ptr, i16, ptr, i16, i16, ptr }
%union.pthread_mutex_t = type { %struct.__pthread_mutex_s }
%struct.__pthread_mutex_s = type { i32, i32, i32, i32, i32, i16, i16, %struct.__pthread_internal_list }
%struct.__pthread_internal_list = type { ptr, ptr }
%struct.slurmdbd_conn_t = type { ptr, ptr, %union.pthread_mutex_t, ptr, ptr }
%struct.persist_conn_t = type { ptr, i32, i32, i8, ptr, ptr, ptr, i64, i16, i32, i16, i8, i32, i32, ptr, i16, ptr, i64, i32, ptr, %struct.slurm_trigger_callbacks_t, i16 }
%struct.slurm_trigger_callbacks_t = type { ptr, ptr, ptr, ptr, ptr }
%struct.persist_msg_t = type { ptr, ptr, i16 }
%struct.job_record = type { i32, ptr, ptr, ptr, ptr, i16, i32, i32, i32, ptr, i32, ptr, ptr, i16, ptr, double, i64, ptr, ptr, ptr, ptr, ptr, ptr, i32, ptr, i32, i64, i64, i32, i32, ptr, i16, i64, i64, i8, i32, ptr, ptr, ptr, ptr, ptr, ptr, ptr, ptr, i32, ptr, ptr, i32, ptr, i32, ptr, i32, ptr, i32, ptr, ptr, ptr, ptr, ptr, ptr, i32, i16, i64, ptr, ptr, ptr, ptr, %struct.acct_policy_limit_set_t, i16, ptr, ptr, ptr, ptr, ptr, i32, ptr, ptr, ptr, ptr, ptr, i32, i32, ptr, ptr, ptr, i16, ptr, ptr, i8, ptr, ptr, i64, i64, i8, i32, i32, i8, i32, ptr, i32, i64, i32, ptr, ptr, ptr, i8, i16, i64, i32, ptr, ptr, ptr, ptr, ptr, i16, i32, ptr, ptr, ptr, ptr, i32, ptr, i32, i16, i64, ptr, i32, i32, ptr, i64, ptr, ptr, i64, i32, i32, i64, i32, i32, ptr, ptr, ptr, ptr, ptr, ptr, ptr, ptr, ptr, ptr, ptr, ptr, i32, ptr, i16, i16, i16, i16, ptr, i32, i32, i8, i64 }
%struct.acct_policy_limit_set_t = type { i16, i16, ptr }
%struct.job_details_t = type { i32, ptr, i64, ptr, i32, ptr, i64, ptr, i16, i16, ptr, i16, i32, i32, i32, i16, ptr, i16, ptr, ptr, ptr, i16, ptr, ptr, ptr, ptr, i32, ptr, ptr, ptr, ptr, ptr, i32, i32, i32, ptr, ptr, i16, i32, i32, i32, i32, i32, i32, i16, i16, i32, i8, i8, i32, i32, i64, i64, i16, i32, ptr, ptr, i8, ptr, i32, ptr, i64, ptr, ptr, i16, i16, i16, i8, ptr, ptr, ptr, ptr, ptr, ptr, i64, i32, i32, i8, ptr, i16, ptr, ptr, i16 }
%struct.dbd_job_heavy_msg_t = type { ptr, ptr, ptr, ptr, ptr }

@slurm_conf = external global %struct.slurm_conf_t, align 8
@.str.8 = private unnamed_addr constant [11 x i8] c"proc_req.c\00", align 1
@.str.86 = private unnamed_addr constant [14 x i8] c"CONN:%d %s %u\00", align 1
@.str.95 = private unnamed_addr constant [39 x i8] c"DBD_JOB_HEAVY message from invalid uid\00", align 1
@.str.96 = private unnamed_addr constant [32 x i8] c"DBD_JOB_HEAVY: SCRIPT:%s ENV:%s\00", align 1
@.str.97 = private unnamed_addr constant [4 x i8] c"yes\00", align 1
@.str.98 = private unnamed_addr constant [3 x i8] c"no\00", align 1
@__func__._job_heavy = private unnamed_addr constant [11 x i8] c"_job_heavy\00", align 1

; Function Attrs: nounwind uwtable
define internal zeroext i1 @_validate_slurm_user(ptr noundef %0) #0 {
  %2 = alloca i1, align 1
  %3 = alloca ptr, align 8
  %4 = alloca i32, align 4
  %5 = alloca i32, align 4
  store ptr %0, ptr %3, align 8
  call void @llvm.lifetime.start.p0(i64 4, ptr %4) #8
  %6 = load ptr, ptr %3, align 8
  %7 = getelementptr inbounds nuw %struct.slurmdbd_conn_t, ptr %6, i32 0, i32 0
  %8 = load ptr, ptr %7, align 8
  %9 = getelementptr inbounds nuw %struct.persist_conn_t, ptr %8, i32 0, i32 1
  %10 = load i32, ptr %9, align 8
  store i32 %10, ptr %4, align 4
  %11 = load i32, ptr %4, align 4
  %12 = icmp eq i32 %11, 0
  br i1 %12, label %17, label %13

13:                                               ; preds = %1
  %14 = load i32, ptr %4, align 4
  %15 = load i32, ptr getelementptr inbounds nuw (%struct.slurm_conf_t, ptr @slurm_conf, i32 0, i32 173), align 8
  %16 = icmp eq i32 %14, %15
  br i1 %16, label %17, label %18

17:                                               ; preds = %13, %1
  store i1 true, ptr %2, align 1
  store i32 1, ptr %5, align 4
  br label %19

18:                                               ; preds = %13
  store i1 false, ptr %2, align 1
  store i32 1, ptr %5, align 4
  br label %19

19:                                               ; preds = %18, %17
  call void @llvm.lifetime.end.p0(i64 4, ptr %4) #8
  %20 = load i1, ptr %2, align 1
  ret i1 %20
}

; Function Attrs: nounwind uwtable
define internal i32 @_job_heavy(ptr noundef %0, ptr noundef %1, ptr noundef %2) #0 {
  %4 = alloca i32, align 4
  %5 = alloca ptr, align 8
  %6 = alloca ptr, align 8
  %7 = alloca ptr, align 8
  %8 = alloca ptr, align 8
  %9 = alloca %struct.job_record, align 8
  %10 = alloca %struct.job_details_t, align 8
  %11 = alloca ptr, align 8
  %12 = alloca i32, align 4
  %13 = alloca i32, align 4
  store ptr %0, ptr %5, align 8
  store ptr %1, ptr %6, align 8
  store ptr %2, ptr %7, align 8
  call void @llvm.lifetime.start.p0(i64 8, ptr %8) #8
  %14 = load ptr, ptr %6, align 8
  %15 = getelementptr inbounds nuw %struct.persist_msg_t, ptr %14, i32 0, i32 1
  %16 = load ptr, ptr %15, align 8
  store ptr %16, ptr %8, align 8
  call void @llvm.lifetime.start.p0(i64 1152, ptr %9) #8
  call void @llvm.lifetime.start.p0(i64 528, ptr %10) #8
  call void @llvm.lifetime.start.p0(i64 8, ptr %11) #8
  store ptr null, ptr %11, align 8
  call void @llvm.lifetime.start.p0(i64 4, ptr %12) #8
  %17 = load ptr, ptr %5, align 8
  %18 = call zeroext i1 @_validate_slurm_user(ptr noundef %17)
  br i1 %18, label %38, label %19

19:                                               ; preds = %3
  store ptr @.str.95, ptr %11, align 8
  %20 = load ptr, ptr %5, align 8
  %21 = getelementptr inbounds nuw %struct.slurmdbd_conn_t, ptr %20, i32 0, i32 0
  %22 = load ptr, ptr %21, align 8
  %23 = getelementptr inbounds nuw %struct.persist_conn_t, ptr %22, i32 0, i32 9
  %24 = load i32, ptr %23, align 4
  %25 = load ptr, ptr %11, align 8
  %26 = load ptr, ptr %5, align 8
  %27 = getelementptr inbounds nuw %struct.slurmdbd_conn_t, ptr %26, i32 0, i32 0
  %28 = load ptr, ptr %27, align 8
  %29 = getelementptr inbounds nuw %struct.persist_conn_t, ptr %28, i32 0, i32 1
  %30 = load i32, ptr %29, align 8
  %31 = call i32 (ptr, ...) @error(ptr noundef @.str.86, i32 noundef %24, ptr noundef %25, i32 noundef %30)
  %32 = load ptr, ptr %5, align 8
  %33 = getelementptr inbounds nuw %struct.slurmdbd_conn_t, ptr %32, i32 0, i32 0
  %34 = load ptr, ptr %33, align 8
  %35 = load ptr, ptr %11, align 8
  %36 = call ptr @slurm_persist_make_rc_msg(ptr noundef %34, i32 noundef 2002, ptr noundef %35, i16 noundef zeroext 1498)
  %37 = load ptr, ptr %7, align 8
  store ptr %36, ptr %37, align 8
  store i32 -1, ptr %4, align 4
  store i32 1, ptr %13, align 4
  br label %98

38:                                               ; preds = %3
  br label %39

39:                                               ; preds = %38
  br label %40

40:                                               ; preds = %39
  %41 = call i32 @get_log_level()
  %42 = icmp sge i32 %41, 6
  br i1 %42, label %43, label %54

43:                                               ; preds = %40
  %44 = load ptr, ptr %8, align 8
  %45 = getelementptr inbounds nuw %struct.dbd_job_heavy_msg_t, ptr %44, i32 0, i32 2
  %46 = load ptr, ptr %45, align 8
  %47 = icmp ne ptr %46, null
  %48 = select i1 %47, ptr @.str.97, ptr @.str.98
  %49 = load ptr, ptr %8, align 8
  %50 = getelementptr inbounds nuw %struct.dbd_job_heavy_msg_t, ptr %49, i32 0, i32 0
  %51 = load ptr, ptr %50, align 8
  %52 = icmp ne ptr %51, null
  %53 = select i1 %52, ptr @.str.97, ptr @.str.98
  call void (i32, ptr, ...) @log_var(i32 noundef 6, ptr noundef @.str.96, ptr noundef %48, ptr noundef %53)
  br label %54

54:                                               ; preds = %43, %40
  br label %55

55:                                               ; preds = %54
  br label %56

56:                                               ; preds = %55
  br label %57

57:                                               ; preds = %56
  br label %58

58:                                               ; preds = %57
  call void @llvm.memset.p0.i64(ptr align 8 %9, i8 0, i64 1152, i1 false)
  call void @llvm.memset.p0.i64(ptr align 8 %10, i8 0, i64 528, i1 false)
  %59 = load ptr, ptr %8, align 8
  %60 = getelementptr inbounds nuw %struct.dbd_job_heavy_msg_t, ptr %59, i32 0, i32 0
  %61 = load ptr, ptr %60, align 8
  %62 = icmp ne ptr %61, null
  br i1 %62, label %63, label %72

63:                                               ; preds = %58
  %64 = call ptr @slurm_xcalloc(i64 noundef 1, i64 noundef 8, i1 noundef zeroext true, i1 noundef zeroext false, ptr noundef @.str.8, i32 noundef 1707, ptr noundef @__func__._job_heavy)
  %65 = getelementptr inbounds nuw %struct.job_details_t, ptr %10, i32 0, i32 23
  store ptr %64, ptr %65, align 8
  %66 = load ptr, ptr %8, align 8
  %67 = getelementptr inbounds nuw %struct.dbd_job_heavy_msg_t, ptr %66, i32 0, i32 0
  %68 = load ptr, ptr %67, align 8
  %69 = getelementptr inbounds nuw %struct.job_details_t, ptr %10, i32 0, i32 23
  %70 = load ptr, ptr %69, align 8
  %71 = getelementptr inbounds ptr, ptr %70, i64 0
  store ptr %68, ptr %71, align 8
  br label %72

72:                                               ; preds = %63, %58
  %73 = load ptr, ptr %8, align 8
  %74 = getelementptr inbounds nuw %struct.dbd_job_heavy_msg_t, ptr %73, i32 0, i32 1
  %75 = load ptr, ptr %74, align 8
  %76 = getelementptr inbounds nuw %struct.job_details_t, ptr %10, i32 0, i32 22
  store ptr %75, ptr %76, align 8
  %77 = load ptr, ptr %8, align 8
  %78 = getelementptr inbounds nuw %struct.dbd_job_heavy_msg_t, ptr %77, i32 0, i32 2
  %79 = load ptr, ptr %78, align 8
  %80 = getelementptr inbounds nuw %struct.job_details_t, ptr %10, i32 0, i32 68
  store ptr %79, ptr %80, align 8
  %81 = load ptr, ptr %8, align 8
  %82 = getelementptr inbounds nuw %struct.dbd_job_heavy_msg_t, ptr %81, i32 0, i32 3
  %83 = load ptr, ptr %82, align 8
  %84 = getelementptr inbounds nuw %struct.job_details_t, ptr %10, i32 0, i32 69
  store ptr %83, ptr %84, align 8
  %85 = getelementptr inbounds nuw %struct.job_record, ptr %9, i32 0, i32 30
  store ptr %10, ptr %85, align 8
  %86 = load ptr, ptr %5, align 8
  %87 = getelementptr inbounds nuw %struct.slurmdbd_conn_t, ptr %86, i32 0, i32 3
  %88 = load ptr, ptr %87, align 8
  %89 = call i32 @jobacct_storage_g_job_heavy(ptr noundef %88, ptr noundef %9)
  store i32 %89, ptr %12, align 4
  %90 = getelementptr inbounds nuw %struct.job_details_t, ptr %10, i32 0, i32 23
  call void @slurm_xfree(ptr noundef %90)
  %91 = load ptr, ptr %5, align 8
  %92 = getelementptr inbounds nuw %struct.slurmdbd_conn_t, ptr %91, i32 0, i32 0
  %93 = load ptr, ptr %92, align 8
  %94 = load i32, ptr %12, align 4
  %95 = load ptr, ptr %11, align 8
  %96 = call ptr @slurm_persist_make_rc_msg(ptr noundef %93, i32 noundef %94, ptr noundef %95, i16 noundef zeroext 1498)
  %97 = load ptr, ptr %7, align 8
  store ptr %96, ptr %97, align 8
  store i32 0, ptr %4, align 4
  store i32 1, ptr %13, align 4
  br label %98

98:                                               ; preds = %72, %19
  call void @llvm.lifetime.end.p0(i64 4, ptr %12) #8
  call void @llvm.lifetime.end.p0(i64 8, ptr %11) #8
  call void @llvm.lifetime.end.p0(i64 528, ptr %10) #8
  call void @llvm.lifetime.end.p0(i64 1152, ptr %9) #8
  call void @llvm.lifetime.end.p0(i64 8, ptr %8) #8
  %99 = load i32, ptr %4, align 4
  ret i32 %99
}