; Function Attrs: nounwind uwtable
define internal fastcc range(i32 -1, 1) i32 @_job_heavy(ptr noundef readonly captures(none) %0, ptr readonly captures(none) %.8.val, ptr noundef writeonly captures(none) initializes((0, 8)) %1) unnamed_addr #0 {
  %3 = alloca %struct.job_record, align 8
  %4 = alloca %struct.job_details_t, align 8
  call void @llvm.lifetime.start.p0(i64 1152, ptr nonnull %3) #10
  call void @llvm.lifetime.start.p0(i64 528, ptr nonnull %4) #10
  %.val = load ptr, ptr %0, align 8
  %5 = getelementptr i8, ptr %.val, i64 8
  %.val.val = load i32, ptr %5, align 8
  %6 = icmp eq i32 %.val.val, 0
  %7 = load i32, ptr getelementptr inbounds nuw (i8, ptr @slurm_conf, i64 1152), align 8
  %8 = icmp eq i32 %.val.val, %7
  %or.cond.i = select i1 %6, i1 true, i1 %8
  br i1 %or.cond.i, label %15, label %9

9:                                                ; preds = %2
  %10 = getelementptr inbounds nuw i8, ptr %.val, i64 60
  %11 = load i32, ptr %10, align 4
  %12 = tail call i32 (ptr, ...) @error(ptr noundef nonnull @.str.86, i32 noundef %11, ptr noundef nonnull @.str.95, i32 noundef %.val.val) #10
  %13 = load ptr, ptr %0, align 8
  %14 = tail call ptr @slurm_persist_make_rc_msg(ptr noundef %13, i32 noundef 2002, ptr noundef nonnull @.str.95, i16 noundef zeroext 1498) #10
  br label %47

15:                                               ; preds = %2
  %16 = tail call i32 @get_log_level() #10
  %17 = icmp sgt i32 %16, 5
  br i1 %17, label %18, label %24

18:                                               ; preds = %15
  %19 = getelementptr inbounds nuw i8, ptr %.8.val, i64 16
  %20 = load ptr, ptr %19, align 8
  %.not = icmp eq ptr %20, null
  %21 = select i1 %.not, ptr @.str.98, ptr @.str.97
  %22 = load ptr, ptr %.8.val, align 8
  %.not20 = icmp eq ptr %22, null
  %23 = select i1 %.not20, ptr @.str.98, ptr @.str.97
  tail call void (i32, ptr, ...) @log_var(i32 noundef 6, ptr noundef nonnull @.str.96, ptr noundef nonnull %21, ptr noundef nonnull %23) #10
  br label %24

24:                                               ; preds = %18, %15
  call void @llvm.memset.p0.i64(ptr noundef nonnull align 8 dereferenceable(1152) %3, i8 0, i64 1152, i1 false)
  call void @llvm.memset.p0.i64(ptr noundef nonnull align 8 dereferenceable(528) %4, i8 0, i64 528, i1 false)
  %25 = load ptr, ptr %.8.val, align 8
  %.not21 = icmp eq ptr %25, null
  br i1 %.not21, label %30, label %26

26:                                               ; preds = %24
  %27 = tail call ptr @slurm_xcalloc(i64 noundef 1, i64 noundef 8, i1 noundef zeroext true, i1 noundef zeroext false, ptr noundef nonnull @.str.8, i32 noundef 1707, ptr noundef nonnull @__func__._job_heavy) #10
  %28 = getelementptr inbounds nuw i8, ptr %4, i64 160
  store ptr %27, ptr %28, align 8
  %29 = load ptr, ptr %.8.val, align 8
  store ptr %29, ptr %27, align 8
  br label %30

30:                                               ; preds = %26, %24
  %31 = getelementptr inbounds nuw i8, ptr %.8.val, i64 8
  %32 = load ptr, ptr %31, align 8
  %33 = getelementptr inbounds nuw i8, ptr %4, i64 152
  store ptr %32, ptr %33, align 8
  %34 = getelementptr inbounds nuw i8, ptr %.8.val, i64 16
  %35 = load ptr, ptr %34, align 8
  %36 = getelementptr inbounds nuw i8, ptr %4, i64 416
  store ptr %35, ptr %36, align 8
  %37 = getelementptr inbounds nuw i8, ptr %.8.val, i64 24
  %38 = load ptr, ptr %37, align 8
  %39 = getelementptr inbounds nuw i8, ptr %4, i64 424
  store ptr %38, ptr %39, align 8
  %40 = getelementptr inbounds nuw i8, ptr %3, i64 216
  store ptr %4, ptr %40, align 8
  %41 = getelementptr inbounds nuw i8, ptr %0, i64 56
  %42 = load ptr, ptr %41, align 8
  %43 = call i32 @jobacct_storage_g_job_heavy(ptr noundef %42, ptr noundef nonnull %3) #10
  %44 = getelementptr inbounds nuw i8, ptr %4, i64 160
  call void @slurm_xfree(ptr noundef nonnull %44) #10
  %45 = load ptr, ptr %0, align 8
  %46 = call ptr @slurm_persist_make_rc_msg(ptr noundef %45, i32 noundef %43, ptr noundef null, i16 noundef zeroext 1498) #10
  br label %47

47:                                               ; preds = %30, %9
  %storemerge = phi ptr [ %14, %9 ], [ %46, %30 ]
  %.0 = phi i32 [ -1, %9 ], [ 0, %30 ]
  store ptr %storemerge, ptr %1, align 8
  call void @llvm.lifetime.end.p0(i64 528, ptr nonnull %4) #10
  call void @llvm.lifetime.end.p0(i64 1152, ptr nonnull %3) #10
  ret i32 %.0
}